target datalayout = "e-m:e-p270:32:32-p271:32:32-p272:64:64-i64:64-i128:128-f80:128-n8:16:32:64-S128"
target triple = "x86_64-pc-linux-gnu"

%struct.ForEachState = type { ptr, i32 }
%union.ListCell = type { ptr }
%struct.PlannerInfo = type { i32, ptr, ptr, i32, ptr, ptr, ptr, ptr, i32, ptr, ptr, ptr, ptr, ptr, ptr, ptr, ptr, i32, ptr, ptr, ptr, ptr, ptr, i8, ptr, ptr, ptr, ptr, ptr, i32, ptr, ptr, ptr, ptr, ptr, ptr, ptr, i32, ptr, ptr, ptr, i32, ptr, ptr, ptr, ptr, ptr, ptr, [8 x ptr], [8 x ptr], ptr, ptr, ptr, ptr, ptr, ptr, ptr, double, double, double, i32, i8, i8, i8, i8, i8, i8, i8, i32, ptr, ptr, i32, i8, i8, i32, ptr, ptr, ptr, ptr, ptr, ptr, i8, ptr }
%struct.List = type { i32, i32, i32, ptr, [0 x %union.ListCell] }
%struct.RelOptInfo = type { i32, i32, ptr, double, i8, i8, i8, ptr, ptr, ptr, ptr, ptr, ptr, ptr, ptr, ptr, ptr, i32, i32, i32, i16, i16, ptr, ptr, ptr, ptr, ptr, ptr, ptr, ptr, i32, double, double, ptr, ptr, ptr, i32, i32, i32, i32, i8, ptr, ptr, ptr, ptr, ptr, %struct.QualCost, i32, ptr, i8, i8, ptr, ptr, ptr, ptr, i32, ptr, i8, ptr, ptr, ptr, ptr, ptr, ptr }
%struct.QualCost = type { double, double }
%struct.SubPlan = type { %struct.Expr, i32, ptr, ptr, i32, ptr, i32, i32, i32, i8, i8, i8, ptr, ptr, ptr, double, double }
%struct.Expr = type { i32 }
%struct.Path = type { i32, i32, ptr, ptr, ptr, i8, i8, i32, double, i32, double, double, ptr }

; Function Attrs: nounwind uwtable
define dso_local void @SS_compute_initplan_cost(ptr noundef %0, ptr noundef %1, ptr noundef %2) #0 {
  %4 = alloca ptr, align 8
  %5 = alloca ptr, align 8
  %6 = alloca ptr, align 8
  %7 = alloca double, align 8
  %8 = alloca i8, align 1
  %9 = alloca ptr, align 8
  %10 = alloca %struct.ForEachState, align 8
  %11 = alloca ptr, align 8
  store ptr %0, ptr %4, align 8
  store ptr %1, ptr %5, align 8
  store ptr %2, ptr %6, align 8
  call void @llvm.lifetime.start.p0(i64 8, ptr %7) #8
  call void @llvm.lifetime.start.p0(i64 1, ptr %8) #8
  call void @llvm.lifetime.start.p0(i64 8, ptr %9) #8
  store double 0.000000e+00, ptr %7, align 8
  store i8 0, ptr %8, align 1
  call void @llvm.lifetime.start.p0(i64 16, ptr %10) #8
  %12 = getelementptr inbounds nuw %struct.ForEachState, ptr %10, i32 0, i32 0
  %13 = load ptr, ptr %4, align 8
  store ptr %13, ptr %12, align 8
  %14 = getelementptr inbounds nuw %struct.ForEachState, ptr %10, i32 0, i32 1
  store i32 0, ptr %14, align 8
  %15 = getelementptr i8, ptr %10, i64 12
  call void @llvm.memset.p0.i64(ptr align 4 %15, i8 0, i64 4, i1 false)
  br label %16

16:                                               ; preds = %60, %3
  %17 = getelementptr inbounds nuw %struct.ForEachState, ptr %10, i32 0, i32 0
  %18 = load ptr, ptr %17, align 8
  %19 = icmp ne ptr %18, null
  br i1 %19, label %20, label %37

20:                                               ; preds = %16
  %21 = getelementptr inbounds nuw %struct.ForEachState, ptr %10, i32 0, i32 1
  %22 = load i32, ptr %21, align 8
  %23 = getelementptr inbounds nuw %struct.ForEachState, ptr %10, i32 0, i32 0
  %24 = load ptr, ptr %23, align 8
  %25 = getelementptr inbounds nuw %struct.List, ptr %24, i32 0, i32 1
  %26 = load i32, ptr %25, align 4
  %27 = icmp slt i32 %22, %26
  br i1 %27, label %28, label %37

28:                                               ; preds = %20
  %29 = getelementptr inbounds nuw %struct.ForEachState, ptr %10, i32 0, i32 0
  %30 = load ptr, ptr %29, align 8
  %31 = getelementptr inbounds nuw %struct.List, ptr %30, i32 0, i32 3
  %32 = load ptr, ptr %31, align 8
  %33 = getelementptr inbounds nuw %struct.ForEachState, ptr %10, i32 0, i32 1
  %34 = load i32, ptr %33, align 8
  %35 = sext i32 %34 to i64
  %36 = getelementptr inbounds %union.ListCell, ptr %32, i64 %35
  store ptr %36, ptr %9, align 8
  br label %38

37:                                               ; preds = %20, %16
  store ptr null, ptr %9, align 8
  br label %38

38:                                               ; preds = %37, %28
  %39 = phi i32 [ 1, %28 ], [ 0, %37 ]
  %40 = icmp ne i32 %39, 0
  br i1 %40, label %42, label %41

41:                                               ; preds = %38
  call void @llvm.lifetime.end.p0(i64 16, ptr %10) #8
  br label %64

42:                                               ; preds = %38
  call void @llvm.lifetime.start.p0(i64 8, ptr %11) #8
  %43 = load ptr, ptr %9, align 8
  %44 = load ptr, ptr %43, align 8
  store ptr %44, ptr %11, align 8
  %45 = load ptr, ptr %11, align 8
  %46 = getelementptr inbounds nuw %struct.SubPlan, ptr %45, i32 0, i32 15
  %47 = load double, ptr %46, align 8
  %48 = load ptr, ptr %11, align 8
  %49 = getelementptr inbounds nuw %struct.SubPlan, ptr %48, i32 0, i32 16
  %50 = load double, ptr %49, align 8
  %51 = fadd double %47, %50
  %52 = load double, ptr %7, align 8
  %53 = fadd double %52, %51
  store double %53, ptr %7, align 8
  %54 = load ptr, ptr %11, align 8
  %55 = getelementptr inbounds nuw %struct.SubPlan, ptr %54, i32 0, i32 11
  %56 = load i8, ptr %55, align 2, !range !4, !noundef !5
  %57 = trunc i8 %56 to i1
  br i1 %57, label %59, label %58

58:                                               ; preds = %42
  store i8 1, ptr %8, align 1
  br label %59

59:                                               ; preds = %58, %42
  call void @llvm.lifetime.end.p0(i64 8, ptr %11) #8
  br label %60

60:                                               ; preds = %59
  %61 = getelementptr inbounds nuw %struct.ForEachState, ptr %10, i32 0, i32 1
  %62 = load i32, ptr %61, align 8
  %63 = add i32 %62, 1
  store i32 %63, ptr %61, align 8
  br label %16, !llvm.loop !19

64:                                               ; preds = %41
  %65 = load double, ptr %7, align 8
  %66 = load ptr, ptr %5, align 8
  store double %65, ptr %66, align 8
  %67 = load i8, ptr %8, align 1, !range !4, !noundef !5
  %68 = trunc i8 %67 to i1
  %69 = load ptr, ptr %6, align 8
  %70 = zext i1 %68 to i8
  store i8 %70, ptr %69, align 1
  call void @llvm.lifetime.end.p0(i64 8, ptr %9) #8
  call void @llvm.lifetime.end.p0(i64 1, ptr %8) #8
  call void @llvm.lifetime.end.p0(i64 8, ptr %7) #8
  ret void
}

; Function Attrs: nounwind uwtable
define dso_local void @SS_charge_for_initplans(ptr noundef %0, ptr noundef %1) #0 {
  %3 = alloca ptr, align 8
  %4 = alloca ptr, align 8
  %5 = alloca double, align 8
  %6 = alloca i8, align 1
  %7 = alloca ptr, align 8
  %8 = alloca i32, align 4
  %9 = alloca %struct.ForEachState, align 8
  %10 = alloca ptr, align 8
  %11 = alloca %struct.ForEachState, align 8
  %12 = alloca ptr, align 8
  store ptr %0, ptr %3, align 8
  store ptr %1, ptr %4, align 8
  call void @llvm.lifetime.start.p0(i64 8, ptr %5) #8
  call void @llvm.lifetime.start.p0(i64 1, ptr %6) #8
  call void @llvm.lifetime.start.p0(i64 8, ptr %7) #8
  %13 = load ptr, ptr %3, align 8
  %14 = getelementptr inbounds nuw %struct.PlannerInfo, ptr %13, i32 0, i32 18
  %15 = load ptr, ptr %14, align 8
  %16 = icmp eq ptr %15, null
  br i1 %16, label %17, label %18

17:                                               ; preds = %2
  store i32 1, ptr %8, align 4
  br label %137

18:                                               ; preds = %2
  %19 = load ptr, ptr %3, align 8
  %20 = getelementptr inbounds nuw %struct.PlannerInfo, ptr %19, i32 0, i32 18
  %21 = load ptr, ptr %20, align 8
  call void @SS_compute_initplan_cost(ptr noundef %21, ptr noundef %5, ptr noundef %6)
  call void @llvm.lifetime.start.p0(i64 16, ptr %9) #8
  %22 = getelementptr inbounds nuw %struct.ForEachState, ptr %9, i32 0, i32 0
  %23 = load ptr, ptr %4, align 8
  %24 = getelementptr inbounds nuw %struct.RelOptInfo, ptr %23, i32 0, i32 8
  %25 = load ptr, ptr %24, align 8
  store ptr %25, ptr %22, align 8
  %26 = getelementptr inbounds nuw %struct.ForEachState, ptr %9, i32 0, i32 1
  store i32 0, ptr %26, align 8
  %27 = getelementptr i8, ptr %9, i64 12
  call void @llvm.memset.p0.i64(ptr align 4 %27, i8 0, i64 4, i1 false)
  br label %28

28:                                               ; preds = %73, %18
  %29 = getelementptr inbounds nuw %struct.ForEachState, ptr %9, i32 0, i32 0
  %30 = load ptr, ptr %29, align 8
  %31 = icmp ne ptr %30, null
  br i1 %31, label %32, label %49

32:                                               ; preds = %28
  %33 = getelementptr inbounds nuw %struct.ForEachState, ptr %9, i32 0, i32 1
  %34 = load i32, ptr %33, align 8
  %35 = getelementptr inbounds nuw %struct.ForEachState, ptr %9, i32 0, i32 0
  %36 = load ptr, ptr %35, align 8
  %37 = getelementptr inbounds nuw %struct.List, ptr %36, i32 0, i32 1
  %38 = load i32, ptr %37, align 4
  %39 = icmp slt i32 %34, %38
  br i1 %39, label %40, label %49

40:                                               ; preds = %32
  %41 = getelementptr inbounds nuw %struct.ForEachState, ptr %9, i32 0, i32 0
  %42 = load ptr, ptr %41, align 8
  %43 = getelementptr inbounds nuw %struct.List, ptr %42, i32 0, i32 3
  %44 = load ptr, ptr %43, align 8
  %45 = getelementptr inbounds nuw %struct.ForEachState, ptr %9, i32 0, i32 1
  %46 = load i32, ptr %45, align 8
  %47 = sext i32 %46 to i64
  %48 = getelementptr inbounds %union.ListCell, ptr %44, i64 %47
  store ptr %48, ptr %7, align 8
  br label %50

49:                                               ; preds = %32, %28
  store ptr null, ptr %7, align 8
  br label %50

50:                                               ; preds = %49, %40
  %51 = phi i32 [ 1, %40 ], [ 0, %49 ]
  %52 = icmp ne i32 %51, 0
  br i1 %52, label %54, label %53

53:                                               ; preds = %50
  store i32 2, ptr %8, align 4
  call void @llvm.lifetime.end.p0(i64 16, ptr %9) #8
  br label %77

54:                                               ; preds = %50
  call void @llvm.lifetime.start.p0(i64 8, ptr %10) #8
  %55 = load ptr, ptr %7, align 8
  %56 = load ptr, ptr %55, align 8
  store ptr %56, ptr %10, align 8
  %57 = load double, ptr %5, align 8
  %58 = load ptr, ptr %10, align 8
  %59 = getelementptr inbounds nuw %struct.Path, ptr %58, i32 0, i32 10
  %60 = load double, ptr %59, align 8
  %61 = fadd double %60, %57
  store double %61, ptr %59, align 8
  %62 = load double, ptr %5, align 8
  %63 = load ptr, ptr %10, align 8
  %64 = getelementptr inbounds nuw %struct.Path, ptr %63, i32 0, i32 11
  %65 = load double, ptr %64, align 8
  %66 = fadd double %65, %62
  store double %66, ptr %64, align 8
  %67 = load i8, ptr %6, align 1, !range !4, !noundef !5
  %68 = trunc i8 %67 to i1
  br i1 %68, label %69, label %72

69:                                               ; preds = %54
  %70 = load ptr, ptr %10, align 8
  %71 = getelementptr inbounds nuw %struct.Path, ptr %70, i32 0, i32 6
  store i8 0, ptr %71, align 1
  br label %72

72:                                               ; preds = %69, %54
  call void @llvm.lifetime.end.p0(i64 8, ptr %10) #8
  br label %73

73:                                               ; preds = %72
  %74 = getelementptr inbounds nuw %struct.ForEachState, ptr %9, i32 0, i32 1
  %75 = load i32, ptr %74, align 8
  %76 = add i32 %75, 1
  store i32 %76, ptr %74, align 8
  br label %28, !llvm.loop !17

77:                                               ; preds = %53
  %78 = load i8, ptr %6, align 1, !range !4, !noundef !5
  %79 = trunc i8 %78 to i1
  br i1 %79, label %80, label %85

80:                                               ; preds = %77
  %81 = load ptr, ptr %4, align 8
  %82 = getelementptr inbounds nuw %struct.RelOptInfo, ptr %81, i32 0, i32 10
  store ptr null, ptr %82, align 8
  %83 = load ptr, ptr %4, align 8
  %84 = getelementptr inbounds nuw %struct.RelOptInfo, ptr %83, i32 0, i32 6
  store i8 0, ptr %84, align 2
  br label %136

85:                                               ; preds = %77
  call void @llvm.lifetime.start.p0(i64 16, ptr %11) #8
  %86 = getelementptr inbounds nuw %struct.ForEachState, ptr %11, i32 0, i32 0
  %87 = load ptr, ptr %4, align 8
  %88 = getelementptr inbounds nuw %struct.RelOptInfo, ptr %87, i32 0, i32 10
  %89 = load ptr, ptr %88, align 8
  store ptr %89, ptr %86, align 8
  %90 = getelementptr inbounds nuw %struct.ForEachState, ptr %11, i32 0, i32 1
  store i32 0, ptr %90, align 8
  %91 = getelementptr i8, ptr %11, i64 12
  call void @llvm.memset.p0.i64(ptr align 4 %91, i8 0, i64 4, i1 false)
  br label %92

92:                                               ; preds = %131, %85
  %93 = getelementptr inbounds nuw %struct.ForEachState, ptr %11, i32 0, i32 0
  %94 = load ptr, ptr %93, align 8
  %95 = icmp ne ptr %94, null
  br i1 %95, label %96, label %113

96:                                               ; preds = %92
  %97 = getelementptr inbounds nuw %struct.ForEachState, ptr %11, i32 0, i32 1
  %98 = load i32, ptr %97, align 8
  %99 = getelementptr inbounds nuw %struct.ForEachState, ptr %11, i32 0, i32 0
  %100 = load ptr, ptr %99, align 8
  %101 = getelementptr inbounds nuw %struct.List, ptr %100, i32 0, i32 1
  %102 = load i32, ptr %101, align 4
  %103 = icmp slt i32 %98, %102
  br i1 %103, label %104, label %113

104:                                              ; preds = %96
  %105 = getelementptr inbounds nuw %struct.ForEachState, ptr %11, i32 0, i32 0
  %106 = load ptr, ptr %105, align 8
  %107 = getelementptr inbounds nuw %struct.List, ptr %106, i32 0, i32 3
  %108 = load ptr, ptr %107, align 8
  %109 = getelementptr inbounds nuw %struct.ForEachState, ptr %11, i32 0, i32 1
  %110 = load i32, ptr %109, align 8
  %111 = sext i32 %110 to i64
  %112 = getelementptr inbounds %union.ListCell, ptr %108, i64 %111
  store ptr %112, ptr %7, align 8
  br label %114

113:                                              ; preds = %96, %92
  store ptr null, ptr %7, align 8
  br label %114

114:                                              ; preds = %113, %104
  %115 = phi i32 [ 1, %104 ], [ 0, %113 ]
  %116 = icmp ne i32 %115, 0
  br i1 %116, label %118, label %117

117:                                              ; preds = %114
  store i32 5, ptr %8, align 4
  call void @llvm.lifetime.end.p0(i64 16, ptr %11) #8
  br label %135

118:                                              ; preds = %114
  call void @llvm.lifetime.start.p0(i64 8, ptr %12) #8
  %119 = load ptr, ptr %7, align 8
  %120 = load ptr, ptr %119, align 8
  store ptr %120, ptr %12, align 8
  %121 = load double, ptr %5, align 8
  %122 = load ptr, ptr %12, align 8
  %123 = getelementptr inbounds nuw %struct.Path, ptr %122, i32 0, i32 10
  %124 = load double, ptr %123, align 8
  %125 = fadd double %124, %121
  store double %125, ptr %123, align 8
  %126 = load double, ptr %5, align 8
  %127 = load ptr, ptr %12, align 8
  %128 = getelementptr inbounds nuw %struct.Path, ptr %127, i32 0, i32 11
  %129 = load double, ptr %128, align 8
  %130 = fadd double %129, %126
  store double %130, ptr %128, align 8
  call void @llvm.lifetime.end.p0(i64 8, ptr %12) #8
  br label %131

131:                                              ; preds = %118
  %132 = getelementptr inbounds nuw %struct.ForEachState, ptr %11, i32 0, i32 1
  %133 = load i32, ptr %132, align 8
  %134 = add i32 %133, 1
  store i32 %134, ptr %132, align 8
  br label %92, !llvm.loop !18

135:                                              ; preds = %117
  br label %136

136:                                              ; preds = %135, %80
  store i32 0, ptr %8, align 4
  br label %137

137:                                              ; preds = %136, %17
  call void @llvm.lifetime.end.p0(i64 8, ptr %7) #8
  call void @llvm.lifetime.end.p0(i64 1, ptr %6) #8
  call void @llvm.lifetime.end.p0(i64 8, ptr %5) #8
  %138 = load i32, ptr %8, align 4
  switch i32 %138, label %140 [
    i32 0, label %139
    i32 1, label %139
  ]

139:                                              ; preds = %137, %137
  ret void

140:                                              ; preds = %137
  unreachable
}