; Function Attrs: nofree norecurse nosync nounwind memory(readwrite, inaccessiblemem: none) uwtable
define dso_local void @SS_charge_for_initplans(ptr noundef readonly captures(none) %0, ptr noundef captures(none) %1) local_unnamed_addr #4 {
  %3 = getelementptr inbounds nuw i8, ptr %0, i64 144
  %4 = load ptr, ptr %3, align 8
  %5 = icmp eq ptr %4, null
  br i1 %5, label %.thread35, label %.lr.ph.i

.lr.ph.i:                                         ; preds = %2
  %6 = getelementptr inbounds nuw i8, ptr %4, i64 4
  %7 = load i32, ptr %6, align 4
  %8 = icmp sgt i32 %7, 0
  br i1 %8, label %.lr.ph32.i, label %SS_compute_initplan_cost.exit

.lr.ph32.i:                                       ; preds = %.lr.ph.i
  %9 = getelementptr inbounds nuw i8, ptr %4, i64 16
  %10 = load ptr, ptr %9, align 8
  %wide.trip.count.i = zext nneg i32 %7 to i64
  br label %11

11:                                               ; preds = %11, %.lr.ph32.i
  %indvars.iv.i = phi i64 [ 0, %.lr.ph32.i ], [ %indvars.iv.next.i, %11 ]
  %.0132030.i = phi i8 [ 0, %.lr.ph32.i ], [ %spec.select.i, %11 ]
  %.02129.i = phi double [ 0.000000e+00, %.lr.ph32.i ], [ %19, %11 ]
  %12 = getelementptr inbounds nuw %union.ListCell, ptr %10, i64 %indvars.iv.i
  %13 = load ptr, ptr %12, align 8
  %14 = getelementptr inbounds nuw i8, ptr %13, i64 80
  %15 = load double, ptr %14, align 8
  %16 = getelementptr inbounds nuw i8, ptr %13, i64 88
  %17 = load double, ptr %16, align 8
  %18 = fadd double %15, %17
  %19 = fadd double %.02129.i, %18
  %20 = getelementptr inbounds nuw i8, ptr %13, i64 54
  %21 = load i8, ptr %20, align 2, !range !4, !noundef !5
  %22 = trunc nuw i8 %21 to i1
  %spec.select.i = select i1 %22, i8 %.0132030.i, i8 1
  %indvars.iv.next.i = add nuw nsw i64 %indvars.iv.i, 1
  %exitcond.not.i = icmp eq i64 %indvars.iv.next.i, %wide.trip.count.i
  br i1 %exitcond.not.i, label %SS_compute_initplan_cost.exit, label %11

SS_compute_initplan_cost.exit:                    ; preds = %11, %.lr.ph.i
  %.013.lcssa.i = phi i8 [ 0, %.lr.ph.i ], [ %spec.select.i, %11 ]
  %.0.lcssa.i = phi double [ 0.000000e+00, %.lr.ph.i ], [ %19, %11 ]
  %23 = getelementptr inbounds nuw i8, ptr %1, i64 40
  %24 = load ptr, ptr %23, align 8
  %25 = getelementptr inbounds nuw i8, ptr %24, i64 4
  %.not = icmp eq ptr %24, null
  br i1 %.not, label %._crit_edge, label %.lr.ph

.lr.ph:                                           ; preds = %SS_compute_initplan_cost.exit
  %26 = getelementptr inbounds nuw i8, ptr %24, i64 16
  %27 = trunc i8 %.013.lcssa.i to i1
  %28 = load i32, ptr %25, align 4
  %29 = icmp sgt i32 %28, 0
  br i1 %27, label %.lr.ph.split.us.split, label %.lr.ph.split.split

.lr.ph.split.us.split:                            ; preds = %.lr.ph
  br i1 %29, label %.lr.ph44, label %._crit_edge.thread

.lr.ph44:                                         ; preds = %.lr.ph.split.us.split, %.lr.ph44
  %indvars.iv53 = phi i64 [ %indvars.iv.next54, %.lr.ph44 ], [ 0, %.lr.ph.split.us.split ]
  %30 = load ptr, ptr %26, align 8
  %31 = getelementptr inbounds nuw %union.ListCell, ptr %30, i64 %indvars.iv53
  %32 = load ptr, ptr %31, align 8
  %33 = getelementptr inbounds nuw i8, ptr %32, i64 56
  %34 = load double, ptr %33, align 8
  %35 = fadd double %.0.lcssa.i, %34
  store double %35, ptr %33, align 8
  %36 = getelementptr inbounds nuw i8, ptr %32, i64 64
  %37 = load double, ptr %36, align 8
  %38 = fadd double %.0.lcssa.i, %37
  store double %38, ptr %36, align 8
  %39 = getelementptr inbounds nuw i8, ptr %32, i64 33
  store i8 0, ptr %39, align 1
  %indvars.iv.next54 = add nuw nsw i64 %indvars.iv53, 1
  %40 = load i32, ptr %25, align 4
  %41 = sext i32 %40 to i64
  %42 = icmp slt i64 %indvars.iv.next54, %41
  br i1 %42, label %.lr.ph44, label %._crit_edge.thread

.lr.ph.split.split:                               ; preds = %.lr.ph
  br i1 %29, label %.lr.ph42, label %._crit_edge.thread61

._crit_edge:                                      ; preds = %SS_compute_initplan_cost.exit
  %.pre = trunc nuw i8 %.013.lcssa.i to i1
  br i1 %.pre, label %._crit_edge.thread, label %._crit_edge.thread61

.lr.ph42:                                         ; preds = %.lr.ph.split.split, %.lr.ph42
  %indvars.iv = phi i64 [ %indvars.iv.next, %.lr.ph42 ], [ 0, %.lr.ph.split.split ]
  %43 = load ptr, ptr %26, align 8
  %44 = getelementptr inbounds nuw %union.ListCell, ptr %43, i64 %indvars.iv
  %45 = load ptr, ptr %44, align 8
  %46 = getelementptr inbounds nuw i8, ptr %45, i64 56
  %47 = load double, ptr %46, align 8
  %48 = fadd double %.0.lcssa.i, %47
  store double %48, ptr %46, align 8
  %49 = getelementptr inbounds nuw i8, ptr %45, i64 64
  %50 = load double, ptr %49, align 8
  %51 = fadd double %.0.lcssa.i, %50
  store double %51, ptr %49, align 8
  %indvars.iv.next = add nuw nsw i64 %indvars.iv, 1
  %52 = load i32, ptr %25, align 4
  %53 = sext i32 %52 to i64
  %54 = icmp slt i64 %indvars.iv.next, %53
  br i1 %54, label %.lr.ph42, label %._crit_edge.thread61

._crit_edge.thread:                               ; preds = %.lr.ph44, %.lr.ph.split.us.split, %._crit_edge
  %55 = getelementptr inbounds nuw i8, ptr %1, i64 56
  store ptr null, ptr %55, align 8
  %56 = getelementptr inbounds nuw i8, ptr %1, i64 26
  store i8 0, ptr %56, align 2
  br label %.thread35

._crit_edge.thread61:                             ; preds = %.lr.ph42, %.lr.ph.split.split, %._crit_edge
  %57 = getelementptr inbounds nuw i8, ptr %1, i64 56
  %58 = load ptr, ptr %57, align 8
  %59 = getelementptr inbounds nuw i8, ptr %58, i64 4
  %.not28 = icmp eq ptr %58, null
  br i1 %.not28, label %.thread35, label %.lr.ph47

.lr.ph47:                                         ; preds = %._crit_edge.thread61
  %60 = getelementptr inbounds nuw i8, ptr %58, i64 16
  %61 = load i32, ptr %59, align 4
  %62 = icmp sgt i32 %61, 0
  br i1 %62, label %.lr.ph50, label %.thread35

.lr.ph50:                                         ; preds = %.lr.ph47, %.lr.ph50
  %indvars.iv56 = phi i64 [ %indvars.iv.next57, %.lr.ph50 ], [ 0, %.lr.ph47 ]
  %63 = load ptr, ptr %60, align 8
  %64 = getelementptr inbounds nuw %union.ListCell, ptr %63, i64 %indvars.iv56
  %65 = load ptr, ptr %64, align 8
  %66 = getelementptr inbounds nuw i8, ptr %65, i64 56
  %67 = load double, ptr %66, align 8
  %68 = fadd double %.0.lcssa.i, %67
  store double %68, ptr %66, align 8
  %69 = getelementptr inbounds nuw i8, ptr %65, i64 64
  %70 = load double, ptr %69, align 8
  %71 = fadd double %.0.lcssa.i, %70
  store double %71, ptr %69, align 8
  %indvars.iv.next57 = add nuw nsw i64 %indvars.iv56, 1
  %72 = load i32, ptr %59, align 4
  %73 = sext i32 %72 to i64
  %74 = icmp slt i64 %indvars.iv.next57, %73
  br i1 %74, label %.lr.ph50, label %.thread35

.thread35:                                        ; preds = %.lr.ph50, %._crit_edge.thread61, %.lr.ph47, %._crit_edge.thread, %2
  ret void
}